; Function Attrs: mustprogress uwtable
define dso_local noundef zeroext i1 @_ZN13cmSystemTools26IsPathToMacOSSharedLibraryERKNSt7__cxx1112basic_stringIcSt11char_traitsIcESaIcEEE(ptr noundef nonnull align 8 dereferenceable(32) %0) local_unnamed_addr #3 align 2 personality ptr @__gxx_personality_v0 {
  %2 = tail call noundef zeroext i1 @_ZN5cmsys11SystemTools14FileIsFullPathERKNSt7__cxx1112basic_stringIcSt11char_traitsIcESaIcEEE(ptr noundef nonnull align 8 dereferenceable(32) %0)
  br i1 %2, label %3, label %_Z18cmHasLiteralSuffixILm7EEbSt17basic_string_viewIcSt11char_traitsIcEERAT__Kc.exit

3:                                                ; preds = %1
  %4 = getelementptr inbounds nuw i8, ptr %0, i64 8
  %5 = load i64, ptr %4, align 8, !tbaa !25
  %.not.i.i = icmp ult i64 %5, 6
  br i1 %.not.i.i, label %_Z18cmHasLiteralSuffixILm7EEbSt17basic_string_viewIcSt11char_traitsIcEERAT__Kc.exit, label %_ZNSt11char_traitsIcE7compareEPKcS2_m.exit.i.i.i.i

_ZNSt11char_traitsIcE7compareEPKcS2_m.exit.i.i.i.i: ; preds = %3
  %6 = load ptr, ptr %0, align 8, !tbaa !13
  %7 = getelementptr i8, ptr %6, i64 %5
  %8 = getelementptr i8, ptr %7, i64 -6
  %bcmp.i.i = tail call i32 @bcmp(ptr noundef nonnull dereferenceable(6) %8, ptr noundef nonnull dereferenceable(6) @.str.47, i64 6)
  %9 = icmp eq i32 %bcmp.i.i, 0
  br label %_Z18cmHasLiteralSuffixILm7EEbSt17basic_string_viewIcSt11char_traitsIcEERAT__Kc.exit

_Z18cmHasLiteralSuffixILm7EEbSt17basic_string_viewIcSt11char_traitsIcEERAT__Kc.exit: ; preds = %_ZNSt11char_traitsIcE7compareEPKcS2_m.exit.i.i.i.i, %3, %1
  %10 = phi i1 [ false, %1 ], [ false, %3 ], [ %9, %_ZNSt11char_traitsIcE7compareEPKcS2_m.exit.i.i.i.i ]
  ret i1 %10
}